target datalayout = "e-m:e-p270:32:32-p271:32:32-p272:64:64-i64:64-i128:128-f80:128-n8:16:32:64-S128"
target triple = "x86_64-pc-linux-gnu"

%struct.ImVec2 = type { float, float }
%struct.ImVec4 = type { float, float, float, float }
%struct.ImDrawListSharedData = type <{ %struct.ImVec2, ptr, ptr, float, float, float, float, float, i32, %struct.ImVec4, %struct.ImVector, [48 x %struct.ImVec2], float, [64 x i8], [4 x i8] }>
%struct.ImVector = type { i32, i32, ptr }
%struct.ImDrawList = type { %struct.ImVector.0, %struct.ImVector.1, %struct.ImVector.2, i32, i32, ptr, ptr, ptr, %struct.ImVector, %struct.ImDrawCmdHeader, %struct.ImDrawListSplitter, %struct.ImVector.4, %struct.ImVector.5, %struct.ImVector.6, float, ptr }
%struct.ImVector.0 = type { i32, i32, ptr }
%struct.ImVector.1 = type { i32, i32, ptr }
%struct.ImVector.2 = type { i32, i32, ptr }
%struct.ImDrawCmdHeader = type <{ %struct.ImVec4, i64, i32, [4 x i8] }>
%struct.ImDrawListSplitter = type { i32, i32, %struct.ImVector.3 }
%struct.ImVector.3 = type { i32, i32, ptr }
%struct.ImVector.4 = type { i32, i32, ptr }
%struct.ImVector.5 = type { i32, i32, ptr }
%struct.ImVector.6 = type { i32, i32, ptr }
%struct.ImDrawVert = type { %struct.ImVec2, %struct.ImVec2, i32 }

; Function Attrs: mustprogress nounwind uwtable
define linkonce_odr void @_ZN6ImVec2C2Eff(ptr noundef nonnull align 4 dereferenceable(8) %0, float noundef %1, float noundef %2) unnamed_addr #3 comdat align 2 {
  %4 = alloca ptr, align 8
  %5 = alloca float, align 4
  %6 = alloca float, align 4
  store ptr %0, ptr %4, align 8, !tbaa !33
  store float %1, ptr %5, align 4, !tbaa !11
  store float %2, ptr %6, align 4, !tbaa !11
  %7 = load ptr, ptr %4, align 8
  %8 = getelementptr inbounds nuw %struct.ImVec2, ptr %7, i32 0, i32 0
  %9 = load float, ptr %5, align 4, !tbaa !11
  store float %9, ptr %8, align 4, !tbaa !34
  %10 = getelementptr inbounds nuw %struct.ImVec2, ptr %7, i32 0, i32 1
  %11 = load float, ptr %6, align 4, !tbaa !11
  store float %11, ptr %10, align 4, !tbaa !35
  ret void
}

; Function Attrs: inlinehint mustprogress uwtable
define linkonce_odr void @_ZN10ImDrawList14PathFillConvexEj(ptr noundef nonnull align 8 dereferenceable(216) %0, i32 noundef %1) #5 comdat align 2 {
  %3 = alloca ptr, align 8
  %4 = alloca i32, align 4
  store ptr %0, ptr %3, align 8, !tbaa !43
  store i32 %1, ptr %4, align 4, !tbaa !27
  %5 = load ptr, ptr %3, align 8
  %6 = getelementptr inbounds nuw %struct.ImDrawList, ptr %5, i32 0, i32 8
  %7 = getelementptr inbounds nuw %struct.ImVector, ptr %6, i32 0, i32 2
  %8 = load ptr, ptr %7, align 8, !tbaa !177
  %9 = getelementptr inbounds nuw %struct.ImDrawList, ptr %5, i32 0, i32 8
  %10 = getelementptr inbounds nuw %struct.ImVector, ptr %9, i32 0, i32 0
  %11 = load i32, ptr %10, align 8, !tbaa !176
  %12 = load i32, ptr %4, align 4, !tbaa !27
  call void @_ZN10ImDrawList19AddConvexPolyFilledEPK6ImVec2ij(ptr noundef nonnull align 8 dereferenceable(216) %5, ptr noundef %8, i32 noundef %11, i32 noundef %12)
  %13 = getelementptr inbounds nuw %struct.ImDrawList, ptr %5, i32 0, i32 8
  %14 = getelementptr inbounds nuw %struct.ImVector, ptr %13, i32 0, i32 0
  store i32 0, ptr %14, align 8, !tbaa !176
  ret void
}

; Function Attrs: mustprogress uwtable
define void @_ZN10ImDrawList8PrimRectERK6ImVec2S2_j(ptr noundef nonnull align 8 dereferenceable(216) %0, ptr noundef nonnull align 4 dereferenceable(8) %1, ptr noundef nonnull align 4 dereferenceable(8) %2, i32 noundef %3) #6 align 2 {
  %5 = alloca ptr, align 8
  %6 = alloca ptr, align 8
  %7 = alloca ptr, align 8
  %8 = alloca i32, align 4
  %9 = alloca %struct.ImVec2, align 4
  %10 = alloca %struct.ImVec2, align 4
  %11 = alloca %struct.ImVec2, align 4
  %12 = alloca i16, align 2
  store ptr %0, ptr %5, align 8, !tbaa !43
  store ptr %1, ptr %6, align 8, !tbaa !33
  store ptr %2, ptr %7, align 8, !tbaa !33
  store i32 %3, ptr %8, align 4, !tbaa !27
  %13 = load ptr, ptr %5, align 8
  call void @llvm.lifetime.start.p0(i64 8, ptr %9) #17
  %14 = load ptr, ptr %7, align 8, !tbaa !33
  %15 = getelementptr inbounds nuw %struct.ImVec2, ptr %14, i32 0, i32 0
  %16 = load float, ptr %15, align 4, !tbaa !34
  %17 = load ptr, ptr %6, align 8, !tbaa !33
  %18 = getelementptr inbounds nuw %struct.ImVec2, ptr %17, i32 0, i32 1
  %19 = load float, ptr %18, align 4, !tbaa !35
  call void @_ZN6ImVec2C2Eff(ptr noundef nonnull align 4 dereferenceable(8) %9, float noundef %16, float noundef %19)
  call void @llvm.lifetime.start.p0(i64 8, ptr %10) #17
  %20 = load ptr, ptr %6, align 8, !tbaa !33
  %21 = getelementptr inbounds nuw %struct.ImVec2, ptr %20, i32 0, i32 0
  %22 = load float, ptr %21, align 4, !tbaa !34
  %23 = load ptr, ptr %7, align 8, !tbaa !33
  %24 = getelementptr inbounds nuw %struct.ImVec2, ptr %23, i32 0, i32 1
  %25 = load float, ptr %24, align 4, !tbaa !35
  call void @_ZN6ImVec2C2Eff(ptr noundef nonnull align 4 dereferenceable(8) %10, float noundef %22, float noundef %25)
  call void @llvm.lifetime.start.p0(i64 8, ptr %11) #17
  %26 = getelementptr inbounds nuw %struct.ImDrawList, ptr %13, i32 0, i32 5
  %27 = load ptr, ptr %26, align 8, !tbaa !45
  %28 = getelementptr inbounds nuw %struct.ImDrawListSharedData, ptr %27, i32 0, i32 0
  call void @llvm.memcpy.p0.p0.i64(ptr align 4 %11, ptr align 8 %28, i64 8, i1 false), !tbaa.struct !28
  call void @llvm.lifetime.start.p0(i64 2, ptr %12) #17
  %29 = getelementptr inbounds nuw %struct.ImDrawList, ptr %13, i32 0, i32 4
  %30 = load i32, ptr %29, align 4, !tbaa !98
  %31 = trunc i32 %30 to i16
  store i16 %31, ptr %12, align 2, !tbaa !156
  %32 = load i16, ptr %12, align 2, !tbaa !156
  %33 = getelementptr inbounds nuw %struct.ImDrawList, ptr %13, i32 0, i32 7
  %34 = load ptr, ptr %33, align 8, !tbaa !100
  %35 = getelementptr inbounds i16, ptr %34, i64 0
  store i16 %32, ptr %35, align 2, !tbaa !156
  %36 = load i16, ptr %12, align 2, !tbaa !156
  %37 = zext i16 %36 to i32
  %38 = add nsw i32 %37, 1
  %39 = trunc i32 %38 to i16
  %40 = getelementptr inbounds nuw %struct.ImDrawList, ptr %13, i32 0, i32 7
  %41 = load ptr, ptr %40, align 8, !tbaa !100
  %42 = getelementptr inbounds i16, ptr %41, i64 1
  store i16 %39, ptr %42, align 2, !tbaa !156
  %43 = load i16, ptr %12, align 2, !tbaa !156
  %44 = zext i16 %43 to i32
  %45 = add nsw i32 %44, 2
  %46 = trunc i32 %45 to i16
  %47 = getelementptr inbounds nuw %struct.ImDrawList, ptr %13, i32 0, i32 7
  %48 = load ptr, ptr %47, align 8, !tbaa !100
  %49 = getelementptr inbounds i16, ptr %48, i64 2
  store i16 %46, ptr %49, align 2, !tbaa !156
  %50 = load i16, ptr %12, align 2, !tbaa !156
  %51 = getelementptr inbounds nuw %struct.ImDrawList, ptr %13, i32 0, i32 7
  %52 = load ptr, ptr %51, align 8, !tbaa !100
  %53 = getelementptr inbounds i16, ptr %52, i64 3
  store i16 %50, ptr %53, align 2, !tbaa !156
  %54 = load i16, ptr %12, align 2, !tbaa !156
  %55 = zext i16 %54 to i32
  %56 = add nsw i32 %55, 2
  %57 = trunc i32 %56 to i16
  %58 = getelementptr inbounds nuw %struct.ImDrawList, ptr %13, i32 0, i32 7
  %59 = load ptr, ptr %58, align 8, !tbaa !100
  %60 = getelementptr inbounds i16, ptr %59, i64 4
  store i16 %57, ptr %60, align 2, !tbaa !156
  %61 = load i16, ptr %12, align 2, !tbaa !156
  %62 = zext i16 %61 to i32
  %63 = add nsw i32 %62, 3
  %64 = trunc i32 %63 to i16
  %65 = getelementptr inbounds nuw %struct.ImDrawList, ptr %13, i32 0, i32 7
  %66 = load ptr, ptr %65, align 8, !tbaa !100
  %67 = getelementptr inbounds i16, ptr %66, i64 5
  store i16 %64, ptr %67, align 2, !tbaa !156
  %68 = load ptr, ptr %6, align 8, !tbaa !33
  %69 = getelementptr inbounds nuw %struct.ImDrawList, ptr %13, i32 0, i32 6
  %70 = load ptr, ptr %69, align 8, !tbaa !99
  %71 = getelementptr inbounds %struct.ImDrawVert, ptr %70, i64 0
  %72 = getelementptr inbounds nuw %struct.ImDrawVert, ptr %71, i32 0, i32 0
  call void @llvm.memcpy.p0.p0.i64(ptr align 4 %72, ptr align 4 %68, i64 8, i1 false), !tbaa.struct !28
  %73 = getelementptr inbounds nuw %struct.ImDrawList, ptr %13, i32 0, i32 6
  %74 = load ptr, ptr %73, align 8, !tbaa !99
  %75 = getelementptr inbounds %struct.ImDrawVert, ptr %74, i64 0
  %76 = getelementptr inbounds nuw %struct.ImDrawVert, ptr %75, i32 0, i32 1
  call void @llvm.memcpy.p0.p0.i64(ptr align 4 %76, ptr align 4 %11, i64 8, i1 false), !tbaa.struct !28
  %77 = load i32, ptr %8, align 4, !tbaa !27
  %78 = getelementptr inbounds nuw %struct.ImDrawList, ptr %13, i32 0, i32 6
  %79 = load ptr, ptr %78, align 8, !tbaa !99
  %80 = getelementptr inbounds %struct.ImDrawVert, ptr %79, i64 0
  %81 = getelementptr inbounds nuw %struct.ImDrawVert, ptr %80, i32 0, i32 2
  store i32 %77, ptr %81, align 4, !tbaa !158
  %82 = getelementptr inbounds nuw %struct.ImDrawList, ptr %13, i32 0, i32 6
  %83 = load ptr, ptr %82, align 8, !tbaa !99
  %84 = getelementptr inbounds %struct.ImDrawVert, ptr %83, i64 1
  %85 = getelementptr inbounds nuw %struct.ImDrawVert, ptr %84, i32 0, i32 0
  call void @llvm.memcpy.p0.p0.i64(ptr align 4 %85, ptr align 4 %9, i64 8, i1 false), !tbaa.struct !28
  %86 = getelementptr inbounds nuw %struct.ImDrawList, ptr %13, i32 0, i32 6
  %87 = load ptr, ptr %86, align 8, !tbaa !99
  %88 = getelementptr inbounds %struct.ImDrawVert, ptr %87, i64 1
  %89 = getelementptr inbounds nuw %struct.ImDrawVert, ptr %88, i32 0, i32 1
  call void @llvm.memcpy.p0.p0.i64(ptr align 4 %89, ptr align 4 %11, i64 8, i1 false), !tbaa.struct !28
  %90 = load i32, ptr %8, align 4, !tbaa !27
  %91 = getelementptr inbounds nuw %struct.ImDrawList, ptr %13, i32 0, i32 6
  %92 = load ptr, ptr %91, align 8, !tbaa !99
  %93 = getelementptr inbounds %struct.ImDrawVert, ptr %92, i64 1
  %94 = getelementptr inbounds nuw %struct.ImDrawVert, ptr %93, i32 0, i32 2
  store i32 %90, ptr %94, align 4, !tbaa !158
  %95 = load ptr, ptr %7, align 8, !tbaa !33
  %96 = getelementptr inbounds nuw %struct.ImDrawList, ptr %13, i32 0, i32 6
  %97 = load ptr, ptr %96, align 8, !tbaa !99
  %98 = getelementptr inbounds %struct.ImDrawVert, ptr %97, i64 2
  %99 = getelementptr inbounds nuw %struct.ImDrawVert, ptr %98, i32 0, i32 0
  call void @llvm.memcpy.p0.p0.i64(ptr align 4 %99, ptr align 4 %95, i64 8, i1 false), !tbaa.struct !28
  %100 = getelementptr inbounds nuw %struct.ImDrawList, ptr %13, i32 0, i32 6
  %101 = load ptr, ptr %100, align 8, !tbaa !99
  %102 = getelementptr inbounds %struct.ImDrawVert, ptr %101, i64 2
  %103 = getelementptr inbounds nuw %struct.ImDrawVert, ptr %102, i32 0, i32 1
  call void @llvm.memcpy.p0.p0.i64(ptr align 4 %103, ptr align 4 %11, i64 8, i1 false), !tbaa.struct !28
  %104 = load i32, ptr %8, align 4, !tbaa !27
  %105 = getelementptr inbounds nuw %struct.ImDrawList, ptr %13, i32 0, i32 6
  %106 = load ptr, ptr %105, align 8, !tbaa !99
  %107 = getelementptr inbounds %struct.ImDrawVert, ptr %106, i64 2
  %108 = getelementptr inbounds nuw %struct.ImDrawVert, ptr %107, i32 0, i32 2
  store i32 %104, ptr %108, align 4, !tbaa !158
  %109 = getelementptr inbounds nuw %struct.ImDrawList, ptr %13, i32 0, i32 6
  %110 = load ptr, ptr %109, align 8, !tbaa !99
  %111 = getelementptr inbounds %struct.ImDrawVert, ptr %110, i64 3
  %112 = getelementptr inbounds nuw %struct.ImDrawVert, ptr %111, i32 0, i32 0
  call void @llvm.memcpy.p0.p0.i64(ptr align 4 %112, ptr align 4 %10, i64 8, i1 false), !tbaa.struct !28
  %113 = getelementptr inbounds nuw %struct.ImDrawList, ptr %13, i32 0, i32 6
  %114 = load ptr, ptr %113, align 8, !tbaa !99
  %115 = getelementptr inbounds %struct.ImDrawVert, ptr %114, i64 3
  %116 = getelementptr inbounds nuw %struct.ImDrawVert, ptr %115, i32 0, i32 1
  call void @llvm.memcpy.p0.p0.i64(ptr align 4 %116, ptr align 4 %11, i64 8, i1 false), !tbaa.struct !28
  %117 = load i32, ptr %8, align 4, !tbaa !27
  %118 = getelementptr inbounds nuw %struct.ImDrawList, ptr %13, i32 0, i32 6
  %119 = load ptr, ptr %118, align 8, !tbaa !99
  %120 = getelementptr inbounds %struct.ImDrawVert, ptr %119, i64 3
  %121 = getelementptr inbounds nuw %struct.ImDrawVert, ptr %120, i32 0, i32 2
  store i32 %117, ptr %121, align 4, !tbaa !158
  %122 = getelementptr inbounds nuw %struct.ImDrawList, ptr %13, i32 0, i32 6
  %123 = load ptr, ptr %122, align 8, !tbaa !99
  %124 = getelementptr inbounds %struct.ImDrawVert, ptr %123, i64 4
  store ptr %124, ptr %122, align 8, !tbaa !99
  %125 = getelementptr inbounds nuw %struct.ImDrawList, ptr %13, i32 0, i32 4
  %126 = load i32, ptr %125, align 4, !tbaa !98
  %127 = add i32 %126, 4
  store i32 %127, ptr %125, align 4, !tbaa !98
  %128 = getelementptr inbounds nuw %struct.ImDrawList, ptr %13, i32 0, i32 7
  %129 = load ptr, ptr %128, align 8, !tbaa !100
  %130 = getelementptr inbounds i16, ptr %129, i64 6
  store ptr %130, ptr %128, align 8, !tbaa !100
  call void @llvm.lifetime.end.p0(i64 2, ptr %12) #17
  call void @llvm.lifetime.end.p0(i64 8, ptr %11) #17
  call void @llvm.lifetime.end.p0(i64 8, ptr %10) #17
  call void @llvm.lifetime.end.p0(i64 8, ptr %9) #17
  ret void
}

; Function Attrs: mustprogress uwtable
define void @_ZN10ImDrawList13AddRectFilledERK6ImVec2S2_jfi(ptr noundef nonnull align 8 dereferenceable(216) %0, ptr noundef nonnull align 4 dereferenceable(8) %1, ptr noundef nonnull align 4 dereferenceable(8) %2, i32 noundef %3, float noundef %4, i32 noundef %5) #6 align 2 {
  %7 = alloca ptr, align 8
  %8 = alloca ptr, align 8
  %9 = alloca ptr, align 8
  %10 = alloca i32, align 4
  %11 = alloca float, align 4
  %12 = alloca i32, align 4
  store ptr %0, ptr %7, align 8, !tbaa !43
  store ptr %1, ptr %8, align 8, !tbaa !33
  store ptr %2, ptr %9, align 8, !tbaa !33
  store i32 %3, ptr %10, align 4, !tbaa !27
  store float %4, ptr %11, align 4, !tbaa !11
  store i32 %5, ptr %12, align 4, !tbaa !27
  %13 = load ptr, ptr %7, align 8
  %14 = load i32, ptr %10, align 4, !tbaa !27
  %15 = and i32 %14, -16777216
  %16 = icmp eq i32 %15, 0
  br i1 %16, label %17, label %18

17:                                               ; preds = %6
  br label %35

18:                                               ; preds = %6
  %19 = load float, ptr %11, align 4, !tbaa !11
  %20 = fcmp olt float %19, 5.000000e-01
  br i1 %20, label %25, label %21

21:                                               ; preds = %18
  %22 = load i32, ptr %12, align 4, !tbaa !27
  %23 = and i32 %22, 496
  %24 = icmp eq i32 %23, 256
  br i1 %24, label %25, label %29

25:                                               ; preds = %21, %18
  call void @_ZN10ImDrawList11PrimReserveEii(ptr noundef nonnull align 8 dereferenceable(216) %13, i32 noundef 6, i32 noundef 4)
  %26 = load ptr, ptr %8, align 8, !tbaa !33
  %27 = load ptr, ptr %9, align 8, !tbaa !33
  %28 = load i32, ptr %10, align 4, !tbaa !27
  call void @_ZN10ImDrawList8PrimRectERK6ImVec2S2_j(ptr noundef nonnull align 8 dereferenceable(216) %13, ptr noundef nonnull align 4 dereferenceable(8) %26, ptr noundef nonnull align 4 dereferenceable(8) %27, i32 noundef %28)
  br label %35

29:                                               ; preds = %21
  %30 = load ptr, ptr %8, align 8, !tbaa !33
  %31 = load ptr, ptr %9, align 8, !tbaa !33
  %32 = load float, ptr %11, align 4, !tbaa !11
  %33 = load i32, ptr %12, align 4, !tbaa !27
  call void @_ZN10ImDrawList8PathRectERK6ImVec2S2_fi(ptr noundef nonnull align 8 dereferenceable(216) %13, ptr noundef nonnull align 4 dereferenceable(8) %30, ptr noundef nonnull align 4 dereferenceable(8) %31, float noundef %32, i32 noundef %33)
  %34 = load i32, ptr %10, align 4, !tbaa !27
  call void @_ZN10ImDrawList14PathFillConvexEj(ptr noundef nonnull align 8 dereferenceable(216) %13, i32 noundef %34)
  br label %35

35:                                               ; preds = %17, %29, %25
  ret void
}