; Function Attrs: mustprogress uwtable
define void @_ZN10ImDrawList13AddRectFilledERK6ImVec2S2_jfi(ptr noundef nonnull align 8 dereferenceable(216) %0, ptr noundef nonnull readonly align 4 captures(none) dereferenceable(8) %1, ptr noundef nonnull readonly align 4 captures(none) dereferenceable(8) %2, i32 noundef %3, float noundef %4, i32 noundef %5) local_unnamed_addr #12 align 2 {
  %7 = icmp ult i32 %3, 16777216
  br i1 %7, label %68, label %8

8:                                                ; preds = %6
  %9 = fcmp olt float %4, 5.000000e-01
  %10 = and i32 %5, 496
  %11 = icmp eq i32 %10, 256
  %or.cond = or i1 %9, %11
  br i1 %or.cond, label %12, label %63

12:                                               ; preds = %8
  tail call void @_ZN10ImDrawList11PrimReserveEii(ptr noundef nonnull align 8 dereferenceable(216) %0, i32 noundef 6, i32 noundef 4)
  %13 = load i32, ptr %2, align 4, !tbaa !103
  %14 = getelementptr inbounds nuw i8, ptr %1, i64 4
  %15 = load i32, ptr %14, align 4, !tbaa !104
  %16 = load i32, ptr %1, align 4, !tbaa !103
  %17 = getelementptr inbounds nuw i8, ptr %2, i64 4
  %18 = load i32, ptr %17, align 4, !tbaa !104
  %19 = getelementptr inbounds nuw i8, ptr %0, i64 56
  %20 = load ptr, ptr %19, align 8, !tbaa !25
  %21 = load i64, ptr %20, align 8
  %22 = getelementptr inbounds nuw i8, ptr %0, i64 52
  %23 = load i32, ptr %22, align 4, !tbaa !59
  %24 = trunc i32 %23 to i16
  %25 = getelementptr inbounds nuw i8, ptr %0, i64 72
  %26 = load ptr, ptr %25, align 8, !tbaa !87
  store i16 %24, ptr %26, align 2, !tbaa !114
  %27 = add i16 %24, 1
  %28 = getelementptr inbounds nuw i8, ptr %26, i64 2
  store i16 %27, ptr %28, align 2, !tbaa !114
  %29 = add i16 %24, 2
  %30 = getelementptr inbounds nuw i8, ptr %26, i64 4
  store i16 %29, ptr %30, align 2, !tbaa !114
  %31 = getelementptr inbounds nuw i8, ptr %26, i64 6
  store i16 %24, ptr %31, align 2, !tbaa !114
  %32 = getelementptr inbounds nuw i8, ptr %26, i64 8
  store i16 %29, ptr %32, align 2, !tbaa !114
  %33 = add i16 %24, 3
  %34 = getelementptr inbounds nuw i8, ptr %26, i64 10
  store i16 %33, ptr %34, align 2, !tbaa !114
  %35 = getelementptr inbounds nuw i8, ptr %0, i64 64
  %36 = load ptr, ptr %35, align 8, !tbaa !113
  %37 = load i64, ptr %1, align 4
  store i64 %37, ptr %36, align 4
  %38 = load ptr, ptr %35, align 8, !tbaa !113
  %39 = getelementptr inbounds nuw i8, ptr %38, i64 8
  store i64 %21, ptr %39, align 4
  %40 = load ptr, ptr %35, align 8, !tbaa !113
  %41 = getelementptr inbounds nuw i8, ptr %40, i64 16
  store i32 %3, ptr %41, align 4, !tbaa !116
  %42 = getelementptr inbounds nuw i8, ptr %40, i64 20
  store i32 %13, ptr %42, align 4
  %.sroa_idx21.i = getelementptr inbounds nuw i8, ptr %40, i64 24
  store i32 %15, ptr %.sroa_idx21.i, align 4
  %43 = load ptr, ptr %35, align 8, !tbaa !113
  %44 = getelementptr inbounds nuw i8, ptr %43, i64 28
  store i64 %21, ptr %44, align 4
  %45 = load ptr, ptr %35, align 8, !tbaa !113
  %46 = getelementptr inbounds nuw i8, ptr %45, i64 36
  store i32 %3, ptr %46, align 4, !tbaa !116
  %47 = getelementptr inbounds nuw i8, ptr %45, i64 40
  %48 = load i64, ptr %2, align 4
  store i64 %48, ptr %47, align 4
  %49 = load ptr, ptr %35, align 8, !tbaa !113
  %50 = getelementptr inbounds nuw i8, ptr %49, i64 48
  store i64 %21, ptr %50, align 4
  %51 = load ptr, ptr %35, align 8, !tbaa !113
  %52 = getelementptr inbounds nuw i8, ptr %51, i64 56
  store i32 %3, ptr %52, align 4, !tbaa !116
  %53 = getelementptr inbounds nuw i8, ptr %51, i64 60
  store i32 %16, ptr %53, align 4
  %.sroa_idx19.i = getelementptr inbounds nuw i8, ptr %51, i64 64
  store i32 %18, ptr %.sroa_idx19.i, align 4
  %54 = load ptr, ptr %35, align 8, !tbaa !113
  %55 = getelementptr inbounds nuw i8, ptr %54, i64 68
  store i64 %21, ptr %55, align 4
  %56 = load ptr, ptr %35, align 8, !tbaa !113
  %57 = getelementptr inbounds nuw i8, ptr %56, i64 76
  store i32 %3, ptr %57, align 4, !tbaa !116
  %58 = getelementptr inbounds nuw i8, ptr %56, i64 80
  store ptr %58, ptr %35, align 8, !tbaa !113
  %59 = load i32, ptr %22, align 4, !tbaa !59
  %60 = add i32 %59, 4
  store i32 %60, ptr %22, align 4, !tbaa !59
  %61 = load ptr, ptr %25, align 8, !tbaa !87
  %62 = getelementptr inbounds nuw i8, ptr %61, i64 12
  store ptr %62, ptr %25, align 8, !tbaa !87
  br label %68

63:                                               ; preds = %8
  tail call void @_ZN10ImDrawList8PathRectERK6ImVec2S2_fi(ptr noundef nonnull align 8 dereferenceable(216) %0, ptr noundef nonnull align 4 dereferenceable(8) %1, ptr noundef nonnull align 4 dereferenceable(8) %2, float noundef %4, i32 noundef %5)
  %64 = getelementptr inbounds nuw i8, ptr %0, i64 80
  %65 = getelementptr inbounds nuw i8, ptr %0, i64 88
  %66 = load ptr, ptr %65, align 8, !tbaa !135
  %67 = load i32, ptr %64, align 8, !tbaa !134
  tail call void @_ZN10ImDrawList19AddConvexPolyFilledEPK6ImVec2ij(ptr noundef nonnull align 8 dereferenceable(216) %0, ptr noundef %66, i32 noundef %67, i32 noundef %3)
  store i32 0, ptr %64, align 8, !tbaa !134
  br label %68

68:                                               ; preds = %6, %63, %12
  ret void
}